Certificate:
    Data:
        Version: 3 (0x2)
        Serial Number: 1 (0x1)
    Signature Algorithm: sha1WithRSAEncryption
        Issuer: C=BA, ST=RS, L=Banja Luka, O=Elektrotehnicki fakultet, OU=CA_Aleksa, CN=rootCA/emailAddress=noreply@rootCA.com
        Validity
            Not Before: Dec 29 18:37:44 2019 GMT
            Not After : Dec 28 18:37:44 2020 GMT
        Subject: C=BA, ST=RS, O=Elektrotehnicki fakultet, OU=CA_Aleksa, CN=aleksa/emailAddress=noreply@aleksa.com
        Subject Public Key Info:
            Public Key Algorithm: rsaEncryption
                Public-Key: (2048 bit)
                Modulus:
                    00:ac:1e:f5:de:ff:67:7a:35:37:d5:fd:00:ed:80:
                    f3:6b:4e:3d:76:2a:6a:a5:cb:3b:5f:72:a4:05:04:
                    1b:35:d3:85:ae:ff:7b:a9:01:c3:33:ee:34:f4:50:
                    86:d4:1e:79:2f:98:70:1a:8f:47:3b:a2:47:e3:d8:
                    f0:b8:5b:c8:d7:f4:80:3b:36:fa:e9:22:34:88:90:
                    0a:b3:12:cb:28:54:cb:21:1d:77:ef:bd:33:70:1f:
                    1a:4c:5b:d0:5e:36:58:7e:09:64:72:d8:88:07:ea:
                    b8:6f:77:9a:df:c6:04:80:c3:19:18:e2:68:7e:c9:
                    df:18:26:9b:38:6e:dc:a0:c0:66:65:0b:e4:ef:62:
                    6f:18:b9:30:29:fe:68:84:3f:94:30:8d:b7:e4:99:
                    29:ba:e6:9f:7f:69:b0:ef:87:01:c2:5d:84:36:e8:
                    00:4b:2a:05:72:57:09:71:db:72:d8:08:a7:73:67:
                    b9:e9:80:3d:6c:a0:94:d7:4c:2e:d1:d4:4f:53:1c:
                    03:e0:3d:84:a3:bb:7c:0a:30:ca:68:cf:e4:08:40:
                    d3:d3:05:ee:06:94:bb:89:6f:55:07:c4:5d:16:2e:
                    dc:02:8a:6b:1d:e5:d4:f5:69:d4:36:40:37:4f:4f:
                    12:34:e5:74:eb:c9:9c:2a:a0:7e:d2:05:fe:52:74:
                    c8:23
                Exponent: 65537 (0x10001)
        X509v3 extensions:
            X509v3 Basic Constraints: 
                CA:FALSE
            X509v3 Key Usage: 
                Digital Signature, Key Encipherment
            X509v3 Extended Key Usage: 
                TLS Web Client Authentication
            Netscape Comment: 
                OpenSSL Generated Certificate
            X509v3 Subject Key Identifier: 
                FC:A1:88:73:10:02:35:DE:6E:ED:1A:E0:2D:08:17:7A:3C:E9:37:AF
            X509v3 Authority Key Identifier: 
                keyid:58:02:FE:6F:CC:4F:DA:FE:FD:D2:D8:37:46:88:E7:16:90:89:FD:A0

            X509v3 CRL Distribution Points: 

                Full Name:
                  URI:http://192.168.21.89/rootcrl.pem

    Signature Algorithm: sha1WithRSAEncryption
         0d:ee:7c:d6:1d:2e:c0:d9:89:08:eb:09:3c:96:5a:b1:e1:12:
         54:64:86:d1:4c:70:ab:92:6c:17:ed:a7:8d:c2:c5:89:07:d6:
         45:0e:b6:7b:0e:2a:46:af:fe:3d:2e:85:1c:78:0a:2c:6a:ff:
         db:da:34:89:d7:60:b9:e9:ed:d8:dc:e1:36:4f:63:ff:b3:85:
         31:76:c5:fc:04:56:15:19:ad:e0:d3:ae:99:50:09:05:cf:d3:
         45:bf:13:66:5f:05:07:89:98:d1:d2:90:4a:08:9b:d7:b4:d6:
         b7:c7:7b:48:89:36:c4:c3:65:bf:da:29:9c:13:75:c6:29:fc:
         8a:69:2e:43:ed:85:e0:08:7b:a9:0d:3c:da:2f:fc:d5:3a:0e:
         a1:6c:c9:9b:cc:b9:bb:76:30:d4:22:3e:91:a4:8d:42:6f:e0:
         8d:e7:c4:3b:2b:d3:40:9a:60:8e:6c:74:79:8c:d2:64:85:b5:
         f1:a4:6d:eb:bd:63:e8:c9:8a:06:44:b5:ed:aa:76:db:4b:ab:
         11:ef:75:e8:09:e7:24:75:de:53:a1:92:78:30:75:61:6d:be:
         87:61:c6:7d:de:f8:ca:ac:d8:30:40:cf:b3:b5:74:8e:d8:e0:
         2d:ea:04:d7:6d:70:8d:c1:07:27:2e:ab:11:68:db:1e:44:ce:
         aa:4b:a7:48:2b:bb:e3:fd:19:ea:91:bd:6c:4b:5e:31:aa:50:
         49:e6:ab:a0:bc:bd:73:6d:e7:79:6f:fe:a6:09:b0:b5:b3:7e:
         4b:6c:e3:2a:de:77:25:1c:b4:df:5d:92:11:93:41:5f:27:29:
         81:9e:8e:58:2f:21:10:4d:f5:12:f3:31:a7:93:8f:79:10:c4:
         ed:39:12:6f:0b:3b:b2:61:a0:07:25:84:83:65:63:1d:78:5a:
         a2:02:bf:1a:e1:4f:de:89:0f:99:c0:04:e5:4b:d1:6d:5b:90:
         15:38:84:00:78:90:08:8c:db:36:09:98:a5:28:94:fe:20:5f:
         d4:2c:58:b9:6e:0c:a6:d1:c2:7e:1c:fa:3e:b4:b0:c0:90:77:
         12:aa:16:a8:5f:81:13:b0:20:d1:00:b2:94:62:a7:84:57:f5:
         af:19:14:48:c2:c6:4a:11:67:ca:d0:1d:6f:c0:15:81:62:87:
         09:14:cd:e4:cb:8a:6e:8c:b7:f4:c0:20:57:f1:71:1a:67:db:
         17:57:21:29:61:bb:7d:42:7b:ff:98:32:09:30:1b:e7:9d:9a:
         ea:af:ea:a0:c8:81:06:c5:50:67:25:97:29:ac:e2:e2:5e:34:
         c0:3b:27:17:19:71:e3:0f:33:19:88:02:80:3b:56:c6:50:93:
         59:c4:ed:d4:e2:7d:b0:10
-----BEGIN CERTIFICATE-----
MIIFbjCCA1agAwIBAgIBATANBgkqhkiG9w0BAQUFADCBmjELMAkGA1UEBhMCQkEx
CzAJBgNVBAgTAlJTMRMwEQYDVQQHEwpCYW5qYSBMdWthMSEwHwYDVQQKExhFbGVr
dHJvdGVobmlja2kgZmFrdWx0ZXQxEjAQBgNVBAsUCUNBX0FsZWtzYTEPMA0GA1UE
AxMGcm9vdENBMSEwHwYJKoZIhvcNAQkBFhJub3JlcGx5QHJvb3RDQS5jb20wHhcN
MTkxMjI5MTgzNzQ0WhcNMjAxMjI4MTgzNzQ0WjCBhTELMAkGA1UEBhMCQkExCzAJ
BgNVBAgTAlJTMSEwHwYDVQQKExhFbGVrdHJvdGVobmlja2kgZmFrdWx0ZXQxEjAQ
BgNVBAsUCUNBX0FsZWtzYTEPMA0GA1UEAxMGYWxla3NhMSEwHwYJKoZIhvcNAQkB
FhJub3JlcGx5QGFsZWtzYS5jb20wggEiMA0GCSqGSIb3DQEBAQUAA4IBDwAwggEK
AoIBAQCsHvXe/2d6NTfV/QDtgPNrTj12KmqlyztfcqQFBBs104Wu/3upAcMz7jT0
UIbUHnkvmHAaj0c7okfj2PC4W8jX9IA7NvrpIjSIkAqzEssoVMshHXfvvTNwHxpM
W9BeNlh+CWRy2IgH6rhvd5rfxgSAwxkY4mh+yd8YJps4btygwGZlC+TvYm8YuTAp
/miEP5QwjbfkmSm65p9/abDvhwHCXYQ26ABLKgVyVwlx23LYCKdzZ7npgD1soJTX
TC7R1E9THAPgPYSju3wKMMpoz+QIQNPTBe4GlLuJb1UHxF0WLtwCimsd5dT1adQ2
QDdPTxI05XTryZwqoH7SBf5SdMgjAgMBAAGjgdEwgc4wCQYDVR0TBAIwADALBgNV
HQ8EBAMCBaAwEwYDVR0lBAwwCgYIKwYBBQUHAwIwLAYJYIZIAYb4QgENBB8WHU9w
ZW5TU0wgR2VuZXJhdGVkIENlcnRpZmljYXRlMB0GA1UdDgQWBBT8oYhzEAI13m7t
GuAtCBd6POk3rzAfBgNVHSMEGDAWgBRYAv5vzE/a/v3S2DdGiOcWkIn9oDAxBgNV
HR8EKjAoMCagJKAihiBodHRwOi8vMTkyLjE2OC4yMS44OS9yb290Y3JsLnBlbTAN
BgkqhkiG9w0BAQUFAAOCAgEADe581h0uwNmJCOsJPJZaseESVGSG0Uxwq5JsF+2n
jcLFiQfWRQ62ew4qRq/+PS6FHHgKLGr/29o0iddguent2NzhNk9j/7OFMXbF/ARW
FRmt4NOumVAJBc/TRb8TZl8FB4mY0dKQSgib17TWt8d7SIk2xMNlv9opnBN1xin8
imkuQ+2F4Ah7qQ082i/81ToOoWzJm8y5u3Yw1CI+kaSNQm/gjefEOyvTQJpgjmx0
eYzSZIW18aRt671j6MmKBkS17ap220urEe916AnnJHXeU6GSeDB1YW2+h2HGfd74
yqzYMEDPs7V0jtjgLeoE121wjcEHJy6rEWjbHkTOqkunSCu74/0Z6pG9bEteMapQ
SearoLy9c23neW/+pgmwtbN+S2zjKt53JRy0312SEZNBXycpgZ6OWC8hEE31EvMx
p5OPeRDE7TkSbws7smGgByWEg2VjHXhaogK/GuFP3okPmcAE5UvRbVuQFTiEAHiQ
CIzbNgmYpSiU/iBf1CxYuW4MptHCfhz6PrSwwJB3EqoWqF+BE7Ag0QCylGKnhFf1
rxkUSMLGShFnytAdb8AVgWKHCRTN5MuKboy39MAgV/FxGmfbF1chKWG7fUJ7/5gy
CTAb552a6q/qoMiBBsVQZyWXKazi4l40wDsnFxlx4w8zGYgCgDtWxlCTWcTt1OJ9
sBA=
-----END CERTIFICATE-----
