Certificate:
    Data:
        Version: 3 (0x2)
        Serial Number: 3 (0x3)
    Signature Algorithm: sha1WithRSAEncryption
        Issuer: C=BA, ST=RS, L=Banja Luka, O=Elektrotehnicki fakultet, OU=CA_Aleksa, CN=rootCA/emailAddress=noreply@rootCA.com
        Validity
            Not Before: Dec 29 18:38:47 2019 GMT
            Not After : Dec 28 18:38:47 2020 GMT
        Subject: C=BA, ST=RS, O=Elektrotehnicki fakultet, OU=CA_Aleksa, CN=aleksamajkic/emailAddress=noreply@am.com
        Subject Public Key Info:
            Public Key Algorithm: rsaEncryption
                Public-Key: (2048 bit)
                Modulus:
                    00:ad:8f:d1:cf:ad:35:19:b0:8d:36:3d:93:38:9b:
                    58:8d:af:93:19:03:58:02:38:63:ce:3b:df:4d:86:
                    7d:6b:11:5f:d0:2e:79:2d:6d:0f:04:27:6c:7c:8f:
                    86:f6:c3:7d:57:e3:9d:f5:38:45:9b:91:57:3d:c0:
                    8e:5b:57:9d:82:5a:36:d6:a4:d8:2c:2d:3b:b1:54:
                    cd:df:51:74:8a:99:d2:4f:ba:b7:6e:c0:91:9b:4f:
                    ae:ed:44:74:5b:f1:c7:69:33:0e:d0:4a:22:3c:45:
                    5f:b4:46:16:40:7d:dd:4d:a0:8b:a1:09:24:30:2a:
                    d5:f7:4d:f8:2e:90:28:83:8f:95:08:47:7f:b5:ec:
                    15:6a:cc:8d:b9:72:4b:96:69:64:1b:50:bd:bf:17:
                    44:62:22:be:c1:a7:85:ff:1e:19:ee:4d:ca:6f:97:
                    9e:59:58:4a:f9:c2:03:c0:4b:5f:c0:3c:80:0d:1a:
                    0d:16:7c:2b:35:45:f3:1d:a2:d9:28:3a:0b:d8:64:
                    e0:00:7d:03:7a:2c:3e:51:40:ef:ce:e7:ca:ee:6a:
                    27:a4:33:ad:d4:d1:60:5b:5f:3e:bc:90:57:b0:7a:
                    2a:38:5e:18:84:9d:3f:a2:27:08:82:20:46:79:bd:
                    de:76:50:43:b1:cf:20:fe:47:06:6b:d4:31:d7:b9:
                    4d:2d
                Exponent: 65537 (0x10001)
        X509v3 extensions:
            X509v3 Basic Constraints: 
                CA:FALSE
            X509v3 Key Usage: 
                Digital Signature, Key Encipherment
            X509v3 Extended Key Usage: 
                TLS Web Client Authentication
            Netscape Comment: 
                OpenSSL Generated Certificate
            X509v3 Subject Key Identifier: 
                C1:B2:73:3B:BA:4A:C6:DF:D4:F5:33:82:BF:84:DF:EC:00:01:FF:37
            X509v3 Authority Key Identifier: 
                keyid:58:02:FE:6F:CC:4F:DA:FE:FD:D2:D8:37:46:88:E7:16:90:89:FD:A0

            X509v3 CRL Distribution Points: 

                Full Name:
                  URI:http://192.168.21.89/rootcrl.pem

    Signature Algorithm: sha1WithRSAEncryption
         0c:4e:2a:60:da:61:64:8a:a9:42:1f:8c:8f:a2:ba:1c:2c:66:
         b1:ae:58:11:00:9c:f4:a7:73:5b:54:77:e6:d8:c5:68:a4:97:
         cc:bc:ef:ca:11:df:72:08:a9:b2:2c:48:10:32:b3:d5:53:89:
         3e:69:30:39:80:21:f3:3e:2c:ed:a8:01:a6:0b:1d:97:ae:30:
         2a:f2:d4:e0:d8:ef:b9:6c:ce:e8:ee:fd:48:3a:9b:f8:12:0f:
         8f:8c:75:56:d5:02:53:dd:02:20:eb:f9:f5:00:27:39:dd:6c:
         59:29:1f:8f:0b:6f:32:9f:9f:f5:2c:65:d9:7d:da:b1:14:75:
         07:74:e7:e4:66:b9:da:66:a9:aa:c6:91:32:56:ff:d4:84:3c:
         01:81:88:20:9f:a6:94:c3:34:a7:7f:18:12:61:15:cb:53:0e:
         34:f3:a8:96:78:9b:6b:ae:f4:39:ed:21:a6:03:04:ea:a6:1c:
         ca:85:17:5e:db:46:2b:99:e4:b5:c7:77:ee:e5:ce:42:1f:d5:
         62:14:66:0c:da:22:36:eb:b3:c1:ce:50:e7:3d:78:f5:52:17:
         b2:ac:ec:b7:2c:ed:54:f6:8d:56:c4:6f:9a:ec:bf:32:10:2c:
         58:10:e9:8d:ad:70:06:5d:44:5c:41:d6:15:b4:84:4c:58:6d:
         47:a1:a4:83:2d:76:92:df:f1:1e:bb:40:c3:28:a0:ac:35:bc:
         22:da:8e:1e:02:c8:9f:54:20:ee:52:74:10:5a:44:8a:7c:52:
         90:97:8c:60:88:a8:9e:ed:72:b3:df:7d:bc:f6:aa:72:18:db:
         f9:c1:d4:ea:84:bb:8c:3a:94:49:bc:4d:87:49:a5:4f:52:7f:
         ec:87:72:09:88:39:a3:6b:79:b2:b0:48:62:a9:75:d8:00:7a:
         e1:8c:17:65:e8:ca:79:a5:00:a6:a2:ed:23:d0:b1:5a:0f:2d:
         6c:5c:b6:7f:44:26:b2:27:57:2d:d5:a8:0e:d5:8f:77:25:08:
         83:25:b6:52:c4:93:e2:93:b8:3f:c1:bf:05:87:99:1a:2a:83:
         38:09:ba:c2:d1:b7:09:26:9f:fc:c2:86:a8:c2:ba:13:cd:85:
         c2:25:81:b8:67:66:92:00:54:4f:17:10:90:ca:f9:c8:97:67:
         fc:e7:04:ba:89:72:c2:3f:df:7b:e4:5c:1f:e1:c0:98:10:56:
         99:5a:2c:7b:ab:cf:a8:36:31:d3:43:66:ab:59:9c:9d:95:76:
         9d:92:64:e5:b7:78:66:1a:72:50:a8:fc:dd:31:81:61:0f:90:
         de:da:8e:17:0a:bf:4a:4b:ea:66:4a:24:b0:d2:23:bd:a6:37:
         8b:25:66:11:b2:8c:d2:5c
-----BEGIN CERTIFICATE-----
MIIFcDCCA1igAwIBAgIBAzANBgkqhkiG9w0BAQUFADCBmjELMAkGA1UEBhMCQkEx
CzAJBgNVBAgTAlJTMRMwEQYDVQQHEwpCYW5qYSBMdWthMSEwHwYDVQQKExhFbGVr
dHJvdGVobmlja2kgZmFrdWx0ZXQxEjAQBgNVBAsUCUNBX0FsZWtzYTEPMA0GA1UE
AxMGcm9vdENBMSEwHwYJKoZIhvcNAQkBFhJub3JlcGx5QHJvb3RDQS5jb20wHhcN
MTkxMjI5MTgzODQ3WhcNMjAxMjI4MTgzODQ3WjCBhzELMAkGA1UEBhMCQkExCzAJ
BgNVBAgTAlJTMSEwHwYDVQQKExhFbGVrdHJvdGVobmlja2kgZmFrdWx0ZXQxEjAQ
BgNVBAsUCUNBX0FsZWtzYTEVMBMGA1UEAxMMYWxla3NhbWFqa2ljMR0wGwYJKoZI
hvcNAQkBFg5ub3JlcGx5QGFtLmNvbTCCASIwDQYJKoZIhvcNAQEBBQADggEPADCC
AQoCggEBAK2P0c+tNRmwjTY9kzibWI2vkxkDWAI4Y847302GfWsRX9AueS1tDwQn
bHyPhvbDfVfjnfU4RZuRVz3AjltXnYJaNtak2CwtO7FUzd9RdIqZ0k+6t27AkZtP
ru1EdFvxx2kzDtBKIjxFX7RGFkB93U2gi6EJJDAq1fdN+C6QKIOPlQhHf7XsFWrM
jblyS5ZpZBtQvb8XRGIivsGnhf8eGe5Nym+XnllYSvnCA8BLX8A8gA0aDRZ8KzVF
8x2i2Sg6C9hk4AB9A3osPlFA787nyu5qJ6QzrdTRYFtfPryQV7B6KjheGISdP6In
CIIgRnm93nZQQ7HPIP5HBmvUMde5TS0CAwEAAaOB0TCBzjAJBgNVHRMEAjAAMAsG
A1UdDwQEAwIFoDATBgNVHSUEDDAKBggrBgEFBQcDAjAsBglghkgBhvhCAQ0EHxYd
T3BlblNTTCBHZW5lcmF0ZWQgQ2VydGlmaWNhdGUwHQYDVR0OBBYEFMGyczu6Ssbf
1PUzgr+E3+wAAf83MB8GA1UdIwQYMBaAFFgC/m/MT9r+/dLYN0aI5xaQif2gMDEG
A1UdHwQqMCgwJqAkoCKGIGh0dHA6Ly8xOTIuMTY4LjIxLjg5L3Jvb3RjcmwucGVt
MA0GCSqGSIb3DQEBBQUAA4ICAQAMTipg2mFkiqlCH4yPorocLGaxrlgRAJz0p3Nb
VHfm2MVopJfMvO/KEd9yCKmyLEgQMrPVU4k+aTA5gCHzPiztqAGmCx2XrjAq8tTg
2O+5bM7o7v1IOpv4Eg+PjHVW1QJT3QIg6/n1ACc53WxZKR+PC28yn5/1LGXZfdqx
FHUHdOfkZrnaZqmqxpEyVv/UhDwBgYggn6aUwzSnfxgSYRXLUw4086iWeJtrrvQ5
7SGmAwTqphzKhRde20YrmeS1x3fu5c5CH9ViFGYM2iI267PBzlDnPXj1UheyrOy3
LO1U9o1WxG+a7L8yECxYEOmNrXAGXURcQdYVtIRMWG1HoaSDLXaS3/Eeu0DDKKCs
Nbwi2o4eAsifVCDuUnQQWkSKfFKQl4xgiKie7XKz33289qpyGNv5wdTqhLuMOpRJ
vE2HSaVPUn/sh3IJiDmja3mysEhiqXXYAHrhjBdl6Mp5pQCmou0j0LFaDy1sXLZ/
RCayJ1ct1agO1Y93JQiDJbZSxJPik7g/wb8Fh5kaKoM4CbrC0bcJJp/8woaowroT
zYXCJYG4Z2aSAFRPFxCQyvnIl2f85wS6iXLCP9975Fwf4cCYEFaZWix7q8+oNjHT
Q2arWZydlXadkmTlt3hmGnJQqPzdMYFhD5De2o4XCr9KS+pmSiSw0iO9pjeLJWYR
sozSXA==
-----END CERTIFICATE-----
