Certificate:
    Data:
        Version: 3 (0x2)
        Serial Number: 2 (0x2)
    Signature Algorithm: sha1WithRSAEncryption
        Issuer: C=BA, ST=RS, L=Banja Luka, O=Elektrotehnicki fakultet, OU=CA_Aleksa, CN=rootCA/emailAddress=noreply@rootCA.com
        Validity
            Not Before: Dec 29 18:38:25 2019 GMT
            Not After : Dec 28 18:38:25 2020 GMT
        Subject: C=BA, ST=RS, O=Elektrotehnicki fakultet, OU=CA_Aleksa, CN=majkic/emailAddress=noreply@majkic.com
        Subject Public Key Info:
            Public Key Algorithm: rsaEncryption
                Public-Key: (2048 bit)
                Modulus:
                    00:cb:27:2d:cb:aa:d9:df:ae:1e:28:29:05:f2:6f:
                    a3:88:d8:ef:4d:6a:6c:5e:ea:e0:84:c3:f9:60:76:
                    5f:4e:9b:5b:be:57:04:0c:da:99:bc:08:58:9e:0a:
                    db:c6:b0:c1:5f:45:ed:eb:20:43:0f:fe:ba:1b:1c:
                    ed:98:b5:8d:b1:9b:81:3e:9a:56:cd:78:7c:9d:a9:
                    9a:31:9d:a4:2e:07:7c:d1:37:b2:1a:16:fc:88:a6:
                    68:4a:b5:fc:24:ee:2d:2e:ad:88:7d:1a:22:99:6a:
                    d1:74:f5:2c:93:e1:1c:1d:f9:08:59:12:4f:39:f1:
                    f5:64:b8:f6:6d:4c:63:53:02:3f:f2:81:b6:f7:89:
                    20:f7:94:72:24:90:2a:e5:f4:39:7f:8b:c0:36:46:
                    0b:d8:18:50:e4:5d:13:bb:39:c1:e2:42:d8:5f:a6:
                    ea:de:57:d6:76:3b:2b:36:16:f8:0a:e5:3a:09:3e:
                    57:1f:48:5c:b3:0b:31:e6:25:c2:c8:60:d7:d9:4d:
                    0e:5d:1f:6d:7a:97:73:dc:d9:6f:2a:ff:4e:f3:ca:
                    41:e0:0f:3a:64:5a:a5:9c:57:b9:ae:33:2b:7f:a9:
                    19:36:ca:29:b4:2b:92:92:66:aa:da:6c:cf:2c:ff:
                    fc:6a:9e:87:12:32:aa:99:87:5c:6e:db:90:b9:58:
                    cf:bb
                Exponent: 65537 (0x10001)
        X509v3 extensions:
            X509v3 Basic Constraints: 
                CA:FALSE
            X509v3 Key Usage: 
                Digital Signature, Key Encipherment
            X509v3 Extended Key Usage: 
                TLS Web Client Authentication
            Netscape Comment: 
                OpenSSL Generated Certificate
            X509v3 Subject Key Identifier: 
                E0:C8:34:8B:47:02:E4:F4:99:DB:EC:C9:90:21:21:2A:9E:6E:E2:1F
            X509v3 Authority Key Identifier: 
                keyid:58:02:FE:6F:CC:4F:DA:FE:FD:D2:D8:37:46:88:E7:16:90:89:FD:A0

            X509v3 CRL Distribution Points: 

                Full Name:
                  URI:http://192.168.21.89/rootcrl.pem

    Signature Algorithm: sha1WithRSAEncryption
         71:b7:ce:a9:25:cc:e7:d4:c0:6d:c6:2d:33:9c:41:63:3b:3d:
         d7:47:3c:eb:bf:aa:36:ab:83:2c:21:ce:b2:5d:ae:71:ca:5e:
         3e:75:2f:b4:61:8e:b2:40:e4:95:a1:ff:09:e1:cb:01:fc:3f:
         5d:7d:60:4f:a9:b7:7e:cd:9a:7b:47:69:1d:6f:79:e4:38:ba:
         c5:3c:de:d0:35:8f:2f:ba:8d:58:85:95:61:9e:5e:aa:79:ed:
         8f:19:87:06:09:0a:27:8d:90:10:c0:78:d9:6a:66:c3:b7:7d:
         ff:0b:77:50:a1:c4:49:ab:f6:ad:05:ca:11:5a:98:3e:ec:d0:
         21:f7:56:31:cf:ab:20:d7:c2:c6:59:d4:d3:dc:f0:88:2a:70:
         33:1a:fc:f5:c4:94:fd:e4:00:68:20:f9:53:1f:89:0b:65:9c:
         22:5e:d5:9d:54:8b:14:79:82:97:2b:1d:68:78:d0:63:18:aa:
         27:5f:ae:67:31:4d:5c:39:f5:51:d3:92:09:53:aa:e7:4d:1d:
         ea:0c:6c:2b:27:df:cb:b8:92:5d:91:5c:f4:07:32:7e:c2:79:
         a2:7e:97:d7:10:31:be:a3:01:04:50:f6:79:a6:9c:3d:13:de:
         cc:57:6c:5b:40:cf:e4:cf:90:1f:e6:e3:c8:80:9b:30:39:b7:
         cf:61:0e:b4:bd:00:bc:87:26:f6:a0:94:2f:1f:fc:c2:db:34:
         13:b3:03:6a:a2:a7:87:01:a7:7d:97:dc:31:b3:88:43:e6:47:
         81:46:25:9f:e3:7d:14:91:92:00:a0:3d:32:67:57:f8:43:36:
         20:81:8d:8b:3b:b8:21:2a:80:d6:09:e1:7f:ab:e6:62:29:90:
         4f:db:9f:e5:f5:3e:8c:0b:2a:42:cf:2d:7c:a2:40:f9:a5:cc:
         f1:48:f8:bd:c8:cb:c0:03:04:9c:e3:49:8a:c6:2c:d6:f3:57:
         06:66:6a:f6:78:f2:de:f5:1b:c9:08:db:36:ad:de:7c:6d:1d:
         a8:63:b3:e5:5e:dd:22:f8:aa:d8:0e:69:0a:1d:4d:af:65:6f:
         b6:2b:aa:07:84:cb:47:06:33:24:03:6e:c0:de:56:6e:4b:fa:
         e2:52:da:df:12:26:8a:6b:23:f3:28:74:dd:3b:62:9f:29:4c:
         9c:8d:82:54:f6:48:70:33:9d:0e:d0:47:d9:ee:29:86:14:8c:
         65:de:6a:33:95:bf:52:80:ad:1a:3f:ee:6d:99:cb:87:94:c2:
         3e:dd:41:f2:0d:42:eb:77:9e:8e:70:80:00:f5:d0:b3:cd:16:
         99:4b:84:5a:13:79:1b:db:ef:78:0e:73:81:1c:a1:c6:77:2e:
         af:a3:21:90:bb:4d:05:96
-----BEGIN CERTIFICATE-----
MIIFbjCCA1agAwIBAgIBAjANBgkqhkiG9w0BAQUFADCBmjELMAkGA1UEBhMCQkEx
CzAJBgNVBAgTAlJTMRMwEQYDVQQHEwpCYW5qYSBMdWthMSEwHwYDVQQKExhFbGVr
dHJvdGVobmlja2kgZmFrdWx0ZXQxEjAQBgNVBAsUCUNBX0FsZWtzYTEPMA0GA1UE
AxMGcm9vdENBMSEwHwYJKoZIhvcNAQkBFhJub3JlcGx5QHJvb3RDQS5jb20wHhcN
MTkxMjI5MTgzODI1WhcNMjAxMjI4MTgzODI1WjCBhTELMAkGA1UEBhMCQkExCzAJ
BgNVBAgTAlJTMSEwHwYDVQQKExhFbGVrdHJvdGVobmlja2kgZmFrdWx0ZXQxEjAQ
BgNVBAsUCUNBX0FsZWtzYTEPMA0GA1UEAxMGbWFqa2ljMSEwHwYJKoZIhvcNAQkB
FhJub3JlcGx5QG1hamtpYy5jb20wggEiMA0GCSqGSIb3DQEBAQUAA4IBDwAwggEK
AoIBAQDLJy3Lqtnfrh4oKQXyb6OI2O9Namxe6uCEw/lgdl9Om1u+VwQM2pm8CFie
CtvGsMFfRe3rIEMP/robHO2YtY2xm4E+mlbNeHydqZoxnaQuB3zRN7IaFvyIpmhK
tfwk7i0urYh9GiKZatF09SyT4Rwd+QhZEk858fVkuPZtTGNTAj/ygbb3iSD3lHIk
kCrl9Dl/i8A2RgvYGFDkXRO7OcHiQthfpureV9Z2Oys2FvgK5ToJPlcfSFyzCzHm
JcLIYNfZTQ5dH216l3Pc2W8q/07zykHgDzpkWqWcV7muMyt/qRk2yim0K5KSZqra
bM8s//xqnocSMqqZh1xu25C5WM+7AgMBAAGjgdEwgc4wCQYDVR0TBAIwADALBgNV
HQ8EBAMCBaAwEwYDVR0lBAwwCgYIKwYBBQUHAwIwLAYJYIZIAYb4QgENBB8WHU9w
ZW5TU0wgR2VuZXJhdGVkIENlcnRpZmljYXRlMB0GA1UdDgQWBBTgyDSLRwLk9Jnb
7MmQISEqnm7iHzAfBgNVHSMEGDAWgBRYAv5vzE/a/v3S2DdGiOcWkIn9oDAxBgNV
HR8EKjAoMCagJKAihiBodHRwOi8vMTkyLjE2OC4yMS44OS9yb290Y3JsLnBlbTAN
BgkqhkiG9w0BAQUFAAOCAgEAcbfOqSXM59TAbcYtM5xBYzs910c867+qNquDLCHO
sl2uccpePnUvtGGOskDklaH/CeHLAfw/XX1gT6m3fs2ae0dpHW955Di6xTze0DWP
L7qNWIWVYZ5eqnntjxmHBgkKJ42QEMB42Wpmw7d9/wt3UKHESav2rQXKEVqYPuzQ
IfdWMc+rINfCxlnU09zwiCpwMxr89cSU/eQAaCD5Ux+JC2WcIl7VnVSLFHmClysd
aHjQYxiqJ1+uZzFNXDn1UdOSCVOq500d6gxsKyffy7iSXZFc9AcyfsJ5on6X1xAx
vqMBBFD2eaacPRPezFdsW0DP5M+QH+bjyICbMDm3z2EOtL0AvIcm9qCULx/8wts0
E7MDaqKnhwGnfZfcMbOIQ+ZHgUYln+N9FJGSAKA9MmdX+EM2IIGNizu4ISqA1gnh
f6vmYimQT9uf5fU+jAsqQs8tfKJA+aXM8Uj4vcjLwAMEnONJisYs1vNXBmZq9njy
3vUbyQjbNq3efG0dqGOz5V7dIviq2A5pCh1Nr2VvtiuqB4TLRwYzJANuwN5Wbkv6
4lLa3xImimsj8yh03TtinylMnI2CVPZIcDOdDtBH2e4phhSMZd5qM5W/UoCtGj/u
bZnLh5TCPt1B8g1C63eejnCAAPXQs80WmUuEWhN5G9vveA5zgRyhxncur6MhkLtN
BZY=
-----END CERTIFICATE-----
